target datalayout = "e-m:e-p270:32:32-p271:32:32-p272:64:64-i64:64-i128:128-f80:128-n8:16:32:64-S128"
target triple = "x86_64-unknown-linux-gnu"

%struct.redisObject = type { i32, i32, ptr }

@.str.1 = private unnamed_addr constant [2 x i8] c"m\00", align 1
@.str.2 = private unnamed_addr constant [3 x i8] c"km\00", align 1
@.str.3 = private unnamed_addr constant [3 x i8] c"ft\00", align 1
@.str.4 = private unnamed_addr constant [3 x i8] c"mi\00", align 1
@.str.5 = private unnamed_addr constant [52 x i8] c"unsupported unit provided. please use M, KM, FT, MI\00", align 1

; Function Attrs: nounwind uwtable
define dso_local double @extractUnitOrReply(ptr noundef %c, ptr noundef %unit) #0 {
entry:
  %retval = alloca double, align 8
  %c.addr = alloca ptr, align 8
  %unit.addr = alloca ptr, align 8
  %u = alloca ptr, align 8
  store ptr %c, ptr %c.addr, align 8
  store ptr %unit, ptr %unit.addr, align 8
  %0 = load ptr, ptr %unit.addr, align 8
  %ptr = getelementptr inbounds %struct.redisObject, ptr %0, i32 0, i32 2
  %1 = load ptr, ptr %ptr, align 8
  store ptr %1, ptr %u, align 8
  %2 = load ptr, ptr %u, align 8
  %call = call i32 @strcasecmp(ptr noundef %2, ptr noundef @.str.1) #11
  %tobool = icmp ne i32 %call, 0
  br i1 %tobool, label %if.else, label %if.then

if.then:                                          ; preds = %entry
  store double 1.000000e+00, ptr %retval, align 8
  br label %return

if.else:                                          ; preds = %entry
  %3 = load ptr, ptr %u, align 8
  %call1 = call i32 @strcasecmp(ptr noundef %3, ptr noundef @.str.2) #11
  %tobool2 = icmp ne i32 %call1, 0
  br i1 %tobool2, label %if.else4, label %if.then3

if.then3:                                         ; preds = %if.else
  store double 1.000000e+03, ptr %retval, align 8
  br label %return

if.else4:                                         ; preds = %if.else
  %4 = load ptr, ptr %u, align 8
  %call5 = call i32 @strcasecmp(ptr noundef %4, ptr noundef @.str.3) #11
  %tobool6 = icmp ne i32 %call5, 0
  br i1 %tobool6, label %if.else8, label %if.then7

if.then7:                                         ; preds = %if.else4
  store double 3.048000e-01, ptr %retval, align 8
  br label %return

if.else8:                                         ; preds = %if.else4
  %5 = load ptr, ptr %u, align 8
  %call9 = call i32 @strcasecmp(ptr noundef %5, ptr noundef @.str.4) #11
  %tobool10 = icmp ne i32 %call9, 0
  br i1 %tobool10, label %if.else12, label %if.then11

if.then11:                                        ; preds = %if.else8
  store double 1.609340e+03, ptr %retval, align 8
  br label %return

if.else12:                                        ; preds = %if.else8
  %6 = load ptr, ptr %c.addr, align 8
  call void @addReplyError(ptr noundef %6, ptr noundef @.str.5)
  store double -1.000000e+00, ptr %retval, align 8
  br label %return

return:                                           ; preds = %if.else12, %if.then11, %if.then7, %if.then3, %if.then
  %7 = load double, ptr %retval, align 8
  ret double %7
}