; Function Attrs: nounwind uwtable
define dso_local noundef double @extractUnitOrReply(ptr noundef %c, ptr nocapture noundef readonly %unit) local_unnamed_addr #0 {
entry:
  %ptr = getelementptr inbounds i8, ptr %unit, i64 8
  %0 = load ptr, ptr %ptr, align 8
  %call = tail call i32 @strcasecmp(ptr noundef %0, ptr noundef nonnull @.str.1) #15
  %tobool.not = icmp eq i32 %call, 0
  br i1 %tobool.not, label %return, label %if.else

if.else:                                          ; preds = %entry
  %call1 = tail call i32 @strcasecmp(ptr noundef %0, ptr noundef nonnull @.str.2) #15
  %tobool2.not = icmp eq i32 %call1, 0
  br i1 %tobool2.not, label %return, label %if.else4

if.else4:                                         ; preds = %if.else
  %call5 = tail call i32 @strcasecmp(ptr noundef %0, ptr noundef nonnull @.str.3) #15
  %tobool6.not = icmp eq i32 %call5, 0
  br i1 %tobool6.not, label %return, label %if.else8

if.else8:                                         ; preds = %if.else4
  %call9 = tail call i32 @strcasecmp(ptr noundef %0, ptr noundef nonnull @.str.4) #15
  %tobool10.not = icmp eq i32 %call9, 0
  br i1 %tobool10.not, label %return, label %if.else12

if.else12:                                        ; preds = %if.else8
  tail call void @addReplyError(ptr noundef %c, ptr noundef nonnull @.str.5) #14
  br label %return

return:                                           ; preds = %if.else8, %if.else4, %if.else, %entry, %if.else12
  %retval.0 = phi double [ -1.000000e+00, %if.else12 ], [ 1.000000e+00, %entry ], [ 1.000000e+03, %if.else ], [ 3.048000e-01, %if.else4 ], [ 1.609340e+03, %if.else8 ]
  ret double %retval.0
}